; Function Attrs: nounwind uwtable
define noalias nonnull ptr @l_Lake_Dependency_materialize_mkDep(ptr noundef readonly captures(none) %0, i8 noundef zeroext %1, ptr noundef %2, ptr noundef %3, ptr noundef %4) local_unnamed_addr #0 {
  %6 = getelementptr inbounds nuw i8, ptr %0, i64 8
  %7 = load ptr, ptr %6, align 8, !tbaa !4
  %8 = getelementptr inbounds nuw i8, ptr %0, i64 16
  %9 = load ptr, ptr %8, align 8, !tbaa !4
  %10 = load ptr, ptr @l_Lake_defaultConfigFile, align 8, !tbaa !4
  %11 = ptrtoint ptr %9 to i64
  %12 = and i64 %11, 1
  %.not = icmp eq i64 %12, 0
  br i1 %.not, label %13, label %lean_inc.exit22

13:                                               ; preds = %5
  %.val.i = load i32, ptr %9, align 4, !tbaa !8
  %14 = icmp sgt i32 %.val.i, 0
  br i1 %14, label %15, label %17, !prof !11

15:                                               ; preds = %13
  %16 = add nuw i32 %.val.i, 1
  store i32 %16, ptr %9, align 4, !tbaa !8
  br label %lean_inc.exit22

17:                                               ; preds = %13
  %.not.i = icmp eq i32 %.val.i, 0
  br i1 %.not.i, label %lean_inc.exit22, label %18

18:                                               ; preds = %17
  tail call void @lean_inc_ref_cold(ptr noundef nonnull %9) #5
  br label %lean_inc.exit22

lean_inc.exit22:                                  ; preds = %18, %17, %15, %5
  %19 = ptrtoint ptr %7 to i64
  %20 = and i64 %19, 1
  %.not27 = icmp eq i64 %20, 0
  br i1 %.not27, label %21, label %lean_inc.exit

21:                                               ; preds = %lean_inc.exit22
  %.val.i23 = load i32, ptr %7, align 4, !tbaa !8
  %22 = icmp sgt i32 %.val.i23, 0
  br i1 %22, label %23, label %25, !prof !11

23:                                               ; preds = %21
  %24 = add nuw i32 %.val.i23, 1
  store i32 %24, ptr %7, align 4, !tbaa !8
  br label %lean_inc.exit

25:                                               ; preds = %21
  %.not.i24 = icmp eq i32 %.val.i23, 0
  br i1 %.not.i24, label %lean_inc.exit, label %26

26:                                               ; preds = %25
  tail call void @lean_inc_ref_cold(ptr noundef nonnull %7) #5
  br label %lean_inc.exit

lean_inc.exit:                                    ; preds = %26, %25, %23, %lean_inc.exit22
  tail call void @lean_inc_heartbeat() #5
  %27 = tail call noalias ptr @mi_malloc_small(i64 noundef 56) #5
  %28 = icmp eq ptr %27, null
  br i1 %28, label %29, label %lean_alloc_ctor.exit

29:                                               ; preds = %lean_inc.exit
  tail call void @lean_internal_panic_out_of_memory() #6
  unreachable

lean_alloc_ctor.exit:                             ; preds = %lean_inc.exit
  %30 = getelementptr inbounds nuw i8, ptr %27, i64 4
  %31 = getelementptr inbounds nuw i8, ptr %27, i64 48
  store i64 0, ptr %31, align 8, !tbaa !12
  store i32 1, ptr %27, align 4, !tbaa !8
  store i32 327736, ptr %30, align 4
  %32 = getelementptr inbounds nuw i8, ptr %27, i64 8
  store ptr %7, ptr %32, align 8, !tbaa !4
  %33 = getelementptr inbounds nuw i8, ptr %27, i64 16
  store ptr %9, ptr %33, align 8, !tbaa !4
  %34 = getelementptr inbounds nuw i8, ptr %27, i64 24
  store ptr %10, ptr %34, align 8, !tbaa !4
  %35 = getelementptr inbounds nuw i8, ptr %27, i64 32
  store ptr inttoptr (i64 1 to ptr), ptr %35, align 8, !tbaa !4
  %36 = getelementptr inbounds nuw i8, ptr %27, i64 40
  store ptr %4, ptr %36, align 8, !tbaa !4
  store i8 %1, ptr %31, align 1, !tbaa !15
  tail call void @lean_inc_heartbeat() #5
  %37 = tail call noalias ptr @mi_malloc_small(i64 noundef 32) #5
  %38 = icmp eq ptr %37, null
  br i1 %38, label %39, label %lean_alloc_ctor.exit26

39:                                               ; preds = %lean_alloc_ctor.exit
  tail call void @lean_internal_panic_out_of_memory() #6
  unreachable

lean_alloc_ctor.exit26:                           ; preds = %lean_alloc_ctor.exit
  %40 = getelementptr inbounds nuw i8, ptr %37, i64 4
  store i32 1, ptr %37, align 4, !tbaa !8
  store i32 196640, ptr %40, align 4
  %41 = getelementptr inbounds nuw i8, ptr %37, i64 8
  store ptr %2, ptr %41, align 8, !tbaa !4
  %42 = getelementptr inbounds nuw i8, ptr %37, i64 16
  store ptr %3, ptr %42, align 8, !tbaa !4
  %43 = getelementptr inbounds nuw i8, ptr %37, i64 24
  store ptr %27, ptr %43, align 8, !tbaa !4
  ret ptr %37
}